; Function Attrs: nofree norecurse nosync nounwind memory(readwrite, inaccessiblemem: none) uwtable
define range(i32 0, 2) i32 @Tas_StorePatternTry(ptr noundef readonly captures(none) %0, ptr noundef readonly captures(none) %1, i32 noundef %2, ptr noundef readonly captures(none) %3, i32 noundef %4) local_unnamed_addr #16 {
  %6 = icmp sgt i32 %4, 0
  br i1 %6, label %.lr.ph, label %.loopexit

.lr.ph:                                           ; preds = %5
  %7 = getelementptr i8, ptr %1, i64 8
  %.val35 = load ptr, ptr %7, align 8, !tbaa !47
  %8 = ashr i32 %2, 5
  %9 = sext i32 %8 to i64
  %10 = and i32 %2, 31
  %11 = shl nuw i32 1, %10
  %12 = getelementptr i8, ptr %0, i64 8
  %wide.trip.count = zext nneg i32 %4 to i64
  br label %19

.lr.ph40:                                         ; preds = %38
  %13 = getelementptr i8, ptr %0, i64 8
  %.val34 = load ptr, ptr %13, align 8, !tbaa !47
  %14 = getelementptr i8, ptr %1, i64 8
  %.val = load ptr, ptr %14, align 8, !tbaa !47
  %15 = and i32 %2, 31
  %16 = shl nuw i32 1, %15
  %17 = ashr i32 %2, 5
  %18 = sext i32 %17 to i64
  %wide.trip.count46 = zext nneg i32 %4 to i64
  br label %39

19:                                               ; preds = %.lr.ph, %38
  %indvars.iv = phi i64 [ 0, %.lr.ph ], [ %indvars.iv.next, %38 ]
  %20 = getelementptr inbounds nuw i32, ptr %3, i64 %indvars.iv
  %21 = load i32, ptr %20, align 4, !tbaa !75
  %22 = ashr i32 %21, 1
  %23 = sext i32 %22 to i64
  %24 = getelementptr inbounds ptr, ptr %.val35, i64 %23
  %25 = load ptr, ptr %24, align 8, !tbaa !119
  %26 = getelementptr inbounds i32, ptr %25, i64 %9
  %27 = load i32, ptr %26, align 4, !tbaa !75
  %28 = and i32 %27, %11
  %.not = icmp eq i32 %28, 0
  br i1 %.not, label %38, label %29

29:                                               ; preds = %19
  %.val36 = load ptr, ptr %12, align 8, !tbaa !47
  %30 = getelementptr inbounds ptr, ptr %.val36, i64 %23
  %31 = load ptr, ptr %30, align 8, !tbaa !119
  %32 = getelementptr inbounds i32, ptr %31, i64 %9
  %33 = load i32, ptr %32, align 4, !tbaa !75
  %34 = lshr i32 %33, %10
  %35 = xor i32 %34, %21
  %36 = and i32 %35, 1
  %37 = icmp eq i32 %36, 0
  br i1 %37, label %.loopexit, label %38

38:                                               ; preds = %19, %29
  %indvars.iv.next = add nuw nsw i64 %indvars.iv, 1
  %exitcond.not = icmp eq i64 %indvars.iv.next, %wide.trip.count
  br i1 %exitcond.not, label %.lr.ph40, label %19, !llvm.loop !152

39:                                               ; preds = %.lr.ph40, %60
  %indvars.iv43 = phi i64 [ 0, %.lr.ph40 ], [ %indvars.iv.next44, %60 ]
  %40 = getelementptr inbounds nuw i32, ptr %3, i64 %indvars.iv43
  %41 = load i32, ptr %40, align 4, !tbaa !75
  %42 = ashr i32 %41, 1
  %43 = sext i32 %42 to i64
  %44 = getelementptr inbounds ptr, ptr %.val34, i64 %43
  %45 = load ptr, ptr %44, align 8, !tbaa !119
  %46 = getelementptr inbounds ptr, ptr %.val, i64 %43
  %47 = load ptr, ptr %46, align 8, !tbaa !119
  %48 = getelementptr inbounds i32, ptr %47, i64 %18
  %49 = load i32, ptr %48, align 4, !tbaa !75
  %50 = or i32 %49, %16
  store i32 %50, ptr %48, align 4, !tbaa !75
  %51 = getelementptr inbounds i32, ptr %45, i64 %18
  %52 = load i32, ptr %51, align 4, !tbaa !75
  %53 = lshr i32 %52, %15
  %54 = load i32, ptr %40, align 4, !tbaa !75
  %55 = xor i32 %53, %54
  %56 = and i32 %55, 1
  %57 = icmp eq i32 %56, 0
  br i1 %57, label %58, label %60

58:                                               ; preds = %39
  %59 = xor i32 %52, %16
  store i32 %59, ptr %51, align 4, !tbaa !75
  br label %60

60:                                               ; preds = %39, %58
  %indvars.iv.next44 = add nuw nsw i64 %indvars.iv43, 1
  %exitcond47.not = icmp eq i64 %indvars.iv.next44, %wide.trip.count46
  br i1 %exitcond47.not, label %.loopexit, label %39, !llvm.loop !153

.loopexit:                                        ; preds = %29, %60, %5
  %.032 = phi i32 [ 1, %5 ], [ 1, %60 ], [ 0, %29 ]
  ret i32 %.032
}